; Function Attrs: mustprogress nofree norecurse nounwind willreturn memory(readwrite, argmem: none, inaccessiblemem: none) uwtable
define dso_local i64 @LFUTimeElapsed(i64 noundef %0) local_unnamed_addr #9 {
  %2 = load atomic i64, ptr getelementptr inbounds nuw (i8, ptr @server, i64 7784) seq_cst, align 8, !tbaa !52
  %3 = sdiv i64 %2, 60
  %4 = and i64 %3, 65535
  %.not = icmp ult i64 %4, %0
  %5 = sub i64 %4, %0
  %6 = add i64 %5, 65535
  %.0 = select i1 %.not, i64 %6, i64 %5
  ret i64 %.0
}